; Function Attrs: nounwind uwtable
define hidden void @png_read_image(ptr noalias noundef %0, ptr nocapture noundef readonly %1) local_unnamed_addr #0 {
  %3 = icmp eq ptr %0, null
  br i1 %3, label %.loopexit, label %4

4:                                                ; preds = %2
  %5 = getelementptr inbounds i8, ptr %0, i64 296
  %6 = load i32, ptr %5, align 8
  %7 = and i32 %6, 64
  %8 = icmp eq i32 %7, 0
  br i1 %8, label %9, label %16

9:                                                ; preds = %4
  %10 = tail call i32 @png_set_interlace_handling(ptr noundef nonnull %0) #11
  %11 = load i32, ptr %5, align 8, !alias.scope !12
  %12 = and i32 %11, 64
  %13 = icmp eq i32 %12, 0
  br i1 %13, label %14, label %15

14:                                               ; preds = %9
  tail call void @png_read_start_row(ptr noundef nonnull %0) #11
  br label %png_start_read_image.exit

15:                                               ; preds = %9
  tail call void @png_app_error(ptr noundef nonnull %0, ptr noundef nonnull @.str.4) #11
  br label %png_start_read_image.exit

16:                                               ; preds = %4
  %17 = getelementptr inbounds i8, ptr %0, i64 516
  %18 = load i8, ptr %17, align 4
  %.not = icmp eq i8 %18, 0
  br i1 %.not, label %28, label %19

19:                                               ; preds = %16
  %20 = getelementptr inbounds i8, ptr %0, i64 300
  %21 = load i32, ptr %20, align 4
  %22 = and i32 %21, 2
  %23 = icmp eq i32 %22, 0
  br i1 %23, label %24, label %28

24:                                               ; preds = %19
  tail call void @png_warning(ptr noundef nonnull %0, ptr noundef nonnull @.str.9) #11
  %25 = getelementptr inbounds i8, ptr %0, i64 428
  %26 = load i32, ptr %25, align 4
  %27 = getelementptr inbounds i8, ptr %0, i64 432
  store i32 %26, ptr %27, align 8
  br label %28

28:                                               ; preds = %24, %19, %16
  %29 = tail call i32 @png_set_interlace_handling(ptr noundef nonnull %0) #11
  br label %png_start_read_image.exit

png_start_read_image.exit:                        ; preds = %15, %14, %28
  %.021 = phi i32 [ %29, %28 ], [ %10, %14 ], [ %10, %15 ]
  %30 = getelementptr inbounds i8, ptr %0, i64 428
  %31 = load i32, ptr %30, align 4
  %32 = icmp slt i32 %.021, 1
  %.not27 = icmp eq i32 %31, 0
  %or.cond = select i1 %32, i1 true, i1 %.not27
  br i1 %or.cond, label %.loopexit, label %.preheader.us

.preheader.us:                                    ; preds = %png_start_read_image.exit, %._crit_edge.us
  %.02026.us = phi i32 [ %37, %._crit_edge.us ], [ 0, %png_start_read_image.exit ]
  br label %33

33:                                               ; preds = %.preheader.us, %33
  %.025.us = phi ptr [ %1, %.preheader.us ], [ %35, %33 ]
  %.02224.us = phi i32 [ 0, %.preheader.us ], [ %36, %33 ]
  %34 = load ptr, ptr %.025.us, align 8
  tail call void @png_read_row(ptr noundef nonnull %0, ptr noundef %34, ptr noundef null)
  %35 = getelementptr inbounds i8, ptr %.025.us, i64 8
  %36 = add nuw i32 %.02224.us, 1
  %exitcond.not = icmp eq i32 %36, %31
  br i1 %exitcond.not, label %._crit_edge.us, label %33, !llvm.loop !15

._crit_edge.us:                                   ; preds = %33
  %37 = add nuw nsw i32 %.02026.us, 1
  %exitcond29.not = icmp eq i32 %37, %.021
  br i1 %exitcond29.not, label %.loopexit, label %.preheader.us, !llvm.loop !16

.loopexit:                                        ; preds = %._crit_edge.us, %png_start_read_image.exit, %2
  ret void
}